target datalayout = "e-m:e-p270:32:32-p271:32:32-p272:64:64-i64:64-i128:128-f80:128-n8:16:32:64-S128"
target triple = "x86_64-unknown-linux-gnu"

%struct.tm = type { i32, i32, i32, i32, i32, i32, i32, i32, i32, i64, ptr }

@_ZN8facebook5velox4utilL9kLeapDaysE = internal constant [13 x i32] [i32 0, i32 31, i32 29, i32 31, i32 30, i32 31, i32 30, i32 31, i32 31, i32 30, i32 31, i32 30, i32 31], align 16
@_ZN8facebook5velox4utilL11kNormalDaysE = internal constant [13 x i32] [i32 0, i32 31, i32 28, i32 31, i32 30, i32 31, i32 30, i32 31, i32 31, i32 30, i32 31, i32 30, i32 31], align 16

; Function Attrs: mustprogress nounwind uwtable
define noundef zeroext i1 @_ZN8facebook5velox4util10isLeapYearEi(i32 noundef %year) #0 {
entry:
  %year.addr = alloca i32, align 4
  store i32 %year, ptr %year.addr, align 4
  %0 = load i32, ptr %year.addr, align 4
  %rem = srem i32 %0, 4
  %cmp = icmp eq i32 %rem, 0
  br i1 %cmp, label %land.rhs, label %land.end

land.rhs:                                         ; preds = %entry
  %1 = load i32, ptr %year.addr, align 4
  %rem1 = srem i32 %1, 100
  %cmp2 = icmp ne i32 %rem1, 0
  br i1 %cmp2, label %lor.end, label %lor.rhs

lor.rhs:                                          ; preds = %land.rhs
  %2 = load i32, ptr %year.addr, align 4
  %rem3 = srem i32 %2, 400
  %cmp4 = icmp eq i32 %rem3, 0
  br label %lor.end

lor.end:                                          ; preds = %lor.rhs, %land.rhs
  %3 = phi i1 [ true, %land.rhs ], [ %cmp4, %lor.rhs ]
  br label %land.end

land.end:                                         ; preds = %lor.end, %entry
  %4 = phi i1 [ false, %entry ], [ %3, %lor.end ]
  ret i1 %4
}

; Function Attrs: mustprogress nounwind uwtable
define noundef i32 @_ZN8facebook5velox4util16getMaxDayOfMonthEii(i32 noundef %year, i32 noundef %month) #0 {
entry:
  %year.addr = alloca i32, align 4
  %month.addr = alloca i32, align 4
  store i32 %year, ptr %year.addr, align 4
  store i32 %month, ptr %month.addr, align 4
  %0 = load i32, ptr %year.addr, align 4
  %call = call noundef zeroext i1 @_ZN8facebook5velox4util10isLeapYearEi(i32 noundef %0)
  br i1 %call, label %cond.true, label %cond.false

cond.true:                                        ; preds = %entry
  %1 = load i32, ptr %month.addr, align 4
  %idxprom = sext i32 %1 to i64
  %arrayidx = getelementptr inbounds [13 x i32], ptr @_ZN8facebook5velox4utilL9kLeapDaysE, i64 0, i64 %idxprom
  %2 = load i32, ptr %arrayidx, align 4
  br label %cond.end

cond.false:                                       ; preds = %entry
  %3 = load i32, ptr %month.addr, align 4
  %idxprom1 = sext i32 %3 to i64
  %arrayidx2 = getelementptr inbounds [13 x i32], ptr @_ZN8facebook5velox4utilL11kNormalDaysE, i64 0, i64 %idxprom1
  %4 = load i32, ptr %arrayidx2, align 4
  br label %cond.end

cond.end:                                         ; preds = %cond.false, %cond.true
  %cond = phi i32 [ %2, %cond.true ], [ %4, %cond.false ]
  ret i32 %cond
}

; Function Attrs: mustprogress uwtable
define noundef i64 @_ZN8facebook5velox4util32lastDayOfMonthSinceEpochFromDateERK2tm(ptr noundef nonnull align 8 dereferenceable(56) %dateTime) #1 {
entry:
  %dateTime.addr = alloca ptr, align 8
  %year = alloca i32, align 4
  %month = alloca i32, align 4
  %day = alloca i32, align 4
  store ptr %dateTime, ptr %dateTime.addr, align 8
  %0 = load ptr, ptr %dateTime.addr, align 8
  %tm_year = getelementptr inbounds %struct.tm, ptr %0, i32 0, i32 5
  %1 = load i32, ptr %tm_year, align 4
  %add = add nsw i32 %1, 1900
  store i32 %add, ptr %year, align 4
  %2 = load ptr, ptr %dateTime.addr, align 8
  %tm_mon = getelementptr inbounds %struct.tm, ptr %2, i32 0, i32 4
  %3 = load i32, ptr %tm_mon, align 8
  %add1 = add nsw i32 %3, 1
  store i32 %add1, ptr %month, align 4
  %4 = load i32, ptr %year, align 4
  %5 = load i32, ptr %month, align 4
  %call = call noundef i32 @_ZN8facebook5velox4util16getMaxDayOfMonthEii(i32 noundef %4, i32 noundef %5)
  store i32 %call, ptr %day, align 4
  %6 = load i32, ptr %year, align 4
  %7 = load i32, ptr %month, align 4
  %8 = load i32, ptr %day, align 4
  %call2 = call noundef i64 @_ZN8facebook5velox4util22daysSinceEpochFromDateEiii(i32 noundef %6, i32 noundef %7, i32 noundef %8)
  ret i64 %call2
}