; Function Attrs: mustprogress nounwind memory(argmem: read, inaccessiblemem: write) uwtable
define noundef range(i64 -1575147300684, 1575146278002) i64 @_ZN8facebook5velox4util32lastDayOfMonthSinceEpochFromDateERK2tm(ptr noundef nonnull readonly align 8 captures(none) dereferenceable(56) %dateTime) local_unnamed_addr #1 {
entry:
  %tm_year = getelementptr inbounds nuw i8, ptr %dateTime, i64 20
  %0 = load i32, ptr %tm_year, align 4
  %add = add nsw i32 %0, 1900
  %tm_mon = getelementptr inbounds nuw i8, ptr %dateTime, i64 16
  %1 = load i32, ptr %tm_mon, align 8
  %add1 = add nsw i32 %1, 1
  %2 = and i32 %0, 3
  %cmp.i.i = icmp eq i32 %2, 0
  br i1 %cmp.i.i, label %land.rhs.i.i, label %_ZN8facebook5velox4util10isLeapYearEi.exit.thread6.i

_ZN8facebook5velox4util10isLeapYearEi.exit.thread6.i: ; preds = %entry
  %idxprom7.i = sext i32 %add1 to i64
  %arrayidx29.i = getelementptr inbounds [13 x i32], ptr @_ZN8facebook5velox4utilL11kNormalDaysE, i64 0, i64 %idxprom7.i
  br label %_ZN8facebook5velox4util16getMaxDayOfMonthEii.exit

land.rhs.i.i:                                     ; preds = %entry
  %rem1.i.i = srem i32 %add, 100
  %cmp2.not.i.i = icmp eq i32 %rem1.i.i, 0
  br i1 %cmp2.not.i.i, label %_ZN8facebook5velox4util10isLeapYearEi.exit.i, label %_ZN8facebook5velox4util10isLeapYearEi.exit.thread.i

_ZN8facebook5velox4util10isLeapYearEi.exit.thread.i: ; preds = %land.rhs.i.i
  %idxprom2.i = sext i32 %add1 to i64
  %arrayidx3.i = getelementptr inbounds [13 x i32], ptr @_ZN8facebook5velox4utilL9kLeapDaysE, i64 0, i64 %idxprom2.i
  br label %_ZN8facebook5velox4util16getMaxDayOfMonthEii.exit

_ZN8facebook5velox4util10isLeapYearEi.exit.i:     ; preds = %land.rhs.i.i
  %rem3.i.i = srem i32 %add, 400
  %cmp4.i.i = icmp eq i32 %rem3.i.i, 0
  %idxprom.i = sext i32 %add1 to i64
  %arrayidx.i = getelementptr inbounds [13 x i32], ptr @_ZN8facebook5velox4utilL9kLeapDaysE, i64 0, i64 %idxprom.i
  %arrayidx2.i = getelementptr inbounds [13 x i32], ptr @_ZN8facebook5velox4utilL11kNormalDaysE, i64 0, i64 %idxprom.i
  %spec.select.i = select i1 %cmp4.i.i, ptr %arrayidx.i, ptr %arrayidx2.i
  br label %_ZN8facebook5velox4util16getMaxDayOfMonthEii.exit

_ZN8facebook5velox4util16getMaxDayOfMonthEii.exit: ; preds = %_ZN8facebook5velox4util10isLeapYearEi.exit.thread6.i, %_ZN8facebook5velox4util10isLeapYearEi.exit.thread.i, %_ZN8facebook5velox4util10isLeapYearEi.exit.i
  %3 = phi ptr [ %arrayidx29.i, %_ZN8facebook5velox4util10isLeapYearEi.exit.thread6.i ], [ %arrayidx3.i, %_ZN8facebook5velox4util10isLeapYearEi.exit.thread.i ], [ %spec.select.i, %_ZN8facebook5velox4util10isLeapYearEi.exit.i ]
  %cond.i = load i32, ptr %3, align 4
  %call2 = tail call noundef i64 @_ZN8facebook5velox4util22daysSinceEpochFromDateEiii(i32 noundef %add, i32 noundef %add1, i32 noundef %cond.i)
  ret i64 %call2
}